(dp0
S'snps'
p1
(dp2
S'wcxF'
p3
(dp4
I256
(dp5
S'46'
p6
(lp7
S'ACC'
p8
aI85
aS'T'
p9
asS'12A'
p10
(lp11
S'GCC'
p12
aI85
aS'A'
p13
asS'12B'
p14
(lp15
g12
aI85
ag13
asS'44'
p16
(lp17
g12
aI85
ag13
asS'12F'
p18
(lp19
g12
aI85
ag13
assI512
(dp20
g6
(lp21
S'ACG'
p22
aI170
ag9
asg10
(lp23
g22
aI170
ag9
asg14
(lp24
g22
aI170
ag9
asg16
(lp25
g22
aI170
ag9
asg18
(lp26
S'ATG'
p27
aI170
aS'M'
p28
assI787
(dp29
g6
(lp30
S'CTA'
p31
aI262
aS'L'
p32
asg10
(lp33
g31
aI262
ag32
asg14
(lp34
g31
aI262
ag32
asg16
(lp35
S'ATA'
p36
aI262
aS'I'
p37
asg18
(lp38
g31
aI262
ag32
assI916
(dp39
g6
(lp40
S'AGT'
p41
aI305
aS'S'
p42
asg10
(lp43
S'GGT'
p44
aI305
aS'G'
p45
asg14
(lp46
g44
aI305
ag45
asg16
(lp47
S'GCT'
p48
aI305
ag13
asg18
(lp49
g44
aI305
ag45
assI560
(dp50
g6
(lp51
S'CTT'
p52
aI186
ag32
asg10
(lp53
g52
aI186
ag32
asg14
(lp54
g52
aI186
ag32
asg16
(lp55
S'CCT'
p56
aI186
aS'P'
p57
asg18
(lp58
g52
aI186
ag32
assI889
(dp59
g6
(lp60
S'ATT'
p61
aI296
ag37
asg10
(lp62
S'GTT'
p63
aI296
aS'V'
p64
asg14
(lp65
g63
aI296
ag64
asg16
(lp66
g63
aI296
ag64
asg18
(lp67
g63
aI296
ag64
assI1120
(dp68
g6
(lp69
g12
aI373
ag13
asg10
(lp70
g12
aI373
ag13
asg14
(lp71
g12
aI373
ag13
asg16
(lp72
g8
aI373
ag9
asg18
(lp73
g12
aI373
ag13
assI703
(dp74
g6
(lp75
g31
aI234
ag32
asg10
(lp76
g36
aI234
ag37
asg14
(lp77
g31
aI234
ag32
asg16
(lp78
g31
aI234
ag32
asg18
(lp79
g31
aI234
ag32
asssS'wcxD'
p80
(dp81
I805
(dp82
g6
(lp83
S'CCA'
p84
aI268
ag57
asg10
(lp85
S'TCA'
p86
aI268
ag42
asg14
(lp87
g86
aI268
ag42
asg16
(lp88
g86
aI268
ag42
asg18
(lp89
g86
aI268
ag42
assI809
(dp90
g6
(lp91
S'ACT'
p92
aI269
ag9
asg10
(lp93
g27
aI269
ag28
asg14
(lp94
g27
aI269
ag28
asg16
(lp95
g27
aI269
ag28
asg18
(lp96
g27
aI269
ag28
assI812
(dp97
g6
(lp98
S'GTA'
p99
aI270
ag64
asg10
(lp100
S'GCA'
p101
aI270
ag13
asg14
(lp102
g99
aI270
ag64
asg16
(lp103
g99
aI270
ag64
asg18
(lp104
g99
aI270
ag64
assI781
(dp105
g6
(lp106
g27
aI260
ag28
asg10
(lp107
S'TTG'
p108
aI260
ag32
asg14
(lp109
g108
aI260
ag32
asg16
(lp110
g108
aI260
ag32
asg18
(lp111
g108
aI260
ag32
assI845
(dp112
g6
(lp113
g63
aI281
ag64
asg10
(lp114
g48
aI281
ag13
asg14
(lp115
g48
aI281
ag13
asg16
(lp116
g48
aI281
ag13
asg18
(lp117
g48
aI281
ag13
assI793
(dp118
g6
(lp119
S'CAT'
p120
aI264
aS'H'
p121
asg10
(lp122
S'TAT'
p123
aI264
aS'Y'
p124
asg14
(lp125
g123
aI264
ag124
asg16
(lp126
g123
aI264
ag124
asg18
(lp127
g123
aI264
ag124
asssS'wzy'
p128
(dp129
I251
(dp130
g6
(lp131
g92
aI83
ag9
asg10
(lp132
g61
aI83
ag37
asg14
(lp133
g92
aI83
ag9
asg16
(lp134
g92
aI83
ag9
asg18
(lp135
g92
aI83
ag9
assss.