(dp0
S'allele'
p1
(dp2
S'wzd'
p3
(dp4
S'15A'
p5
S'wzd-1'
p6
sS'15C'
p7
S'wzd-2'
p8
sS'15B'
p9
g8
sssS'genes'
p10
(dp11
g5
(dp12
S'rmlB'
p13
I0
sS'wcjE'
p14
I0
sS'glf'
p15
I0
sS'rmlD'
p16
I0
ssg7
(dp17
g13
I0
sg14
I0
sg15
I0
sg16
I0
ssg9
(dp18
g13
I0
sg14
I0
sg15
I0
sg16
I0
ssS'15F'
p19
(dp20
g13
I1
sg14
I1
sg15
I1
sg16
I1
sssS'pseudo'
p21
(dp22
g7
(dp23
S'wciZ'
p24
(lp25
I1
a(lp26
(lp27
I412
aI417
aaassg9
(dp28
g24
(lp29
I0
a(lp30
(lp31
I412
aI417
aaasss.