(dp0
S'genes'
p1
(dp2
S'18B'
p3
(dp4
S'wciX'
p5
I1
sS'wcxM'
p6
I0
ssS'18C'
p7
(dp8
g5
I1
sg6
I0
ssS'18A'
p9
(dp10
g5
I0
sg6
I0
ssS'18F'
p11
(dp12
g5
I1
sg6
I1
sssS'pseudo'
p13
(dp14
g3
(dp15
g5
(lp16
I1
a(lp17
(I168
I171
tp18
aS'TGA'
p19
aassg7
(dp20
g5
(lp21
I0
a(lp22
(I168
I171
tp23
aS'GGA'
p24
aassg11
(dp25
g5
(lp26
I0
a(lp27
(I168
I171
tp28
ag24
aasss.