(dp0
S'snps'
p1
(dp2
S'wcrL'
p3
(dp4
I334
(dp5
S'11D'
p6
(lp7
S'AGT'
p8
aI111
aS'S'
p9
asS'11F'
p10
(lp11
S'GCT'
p12
aI111
aS'A'
p13
asS'11A'
p14
(lp15
S'AAT'
p16
aI111
aS'N'
p17
assssS'allele'
p18
(dp19
g3
(dp20
g6
S'wcrL-1'
p21
sg10
g21
sg14
g21
sS'11C'
p22
S'wcrL-2'
p23
sS'11B'
p24
g23
sssS'genes'
p25
(dp26
g6
(dp27
S'wcwR'
p28
I0
sS'wcjE'
p29
I1
sS'wcwC_11D'
p30
I1
ssg10
(dp31
g28
I0
sS'wcwC_11F'
p32
I1
sg29
I1
ssg14
(dp33
g28
I0
sS'wcwC_11A'
p34
I1
sg29
I1
ssg22
(dp35
g28
I1
sg34
I0
sg29
I0
ssg24
(dp36
g28
I1
sg34
I0
sg29
I0
sssS'pseudo'
p37
(dp38
g6
(dp39
S'gct'
p40
(lp41
I0
a(lp42
(I130
I131
tp43
ag13
aassg10
(dp44
g40
(lp45
I1
a(lp46
(I130
I131
tp47
aS'-'
p48
aassg14
(dp49
g40
(lp50
I0
a(lp51
(I130
I131
tp52
ag13
aassg22
(dp53
g40
(lp54
I0
a(lp55
(I130
I131
tp56
ag13
aassg24
(dp57
g40
(lp58
I1
a(lp59
(I130
I131
tp60
ag48
aasss.